target datalayout = "e-m:e-p270:32:32-p271:32:32-p272:64:64-i64:64-i128:128-f80:128-n8:16:32:64-S128"
target triple = "x86_64-pc-linux-gnu"

; Function Attrs: mustprogress uwtable
define hidden void @_ZN4lean8finalizeEv() #0 {
  call void @_ZN4lean21run_thread_finalizersEv()
  call void @_ZN4lean29finalize_constructions_moduleEv()
  call void @_ZN4lean24finalize_compiler_moduleEv()
  call void @_ZN4lean23finalize_library_moduleEv()
  call void @_ZN4lean28finalize_library_core_moduleEv()
  call void @_ZN4lean22finalize_kernel_moduleEv()
  call void @_ZN4lean20finalize_util_moduleEv()
  call void @_ZN4lean26run_post_thread_finalizersEv()
  call void @_ZN4lean31delete_thread_finalizer_managerEv()
  ret void
}

; Function Attrs: mustprogress nounwind uwtable
define hidden void @_ZN4lean11initializerD2Ev(ptr noundef nonnull align 1 dereferenceable(1) %0) unnamed_addr #4 align 2 personality ptr @__gxx_personality_v0 {
  %2 = alloca ptr, align 8
  store ptr %0, ptr %2, align 8, !tbaa !8
  invoke void @_ZN4lean8finalizeEv()
          to label %3 unwind label %4

3:                                                ; preds = %1
  ret void

4:                                                ; preds = %1
  %5 = landingpad { ptr, i32 }
          catch ptr null
  %6 = extractvalue { ptr, i32 } %5, 0
  call void @__clang_call_terminate(ptr %6) #16
  unreachable
}