; Function Attrs: mustprogress nounwind uwtable
define hidden void @_ZN4lean11initializerD2Ev(ptr nonnull readnone align 1 captures(none) %0) unnamed_addr #4 align 2 personality ptr @__gxx_personality_v0 {
  invoke void @_ZN4lean21run_thread_finalizersEv()
          to label %.noexc unwind label %2

.noexc:                                           ; preds = %1
  invoke void @_ZN4lean29finalize_constructions_moduleEv()
          to label %.noexc1 unwind label %2

.noexc1:                                          ; preds = %.noexc
  invoke void @_ZN4lean24finalize_compiler_moduleEv()
          to label %.noexc2 unwind label %2

.noexc2:                                          ; preds = %.noexc1
  invoke void @_ZN4lean23finalize_library_moduleEv()
          to label %.noexc3 unwind label %2

.noexc3:                                          ; preds = %.noexc2
  invoke void @_ZN4lean28finalize_library_core_moduleEv()
          to label %.noexc4 unwind label %2

.noexc4:                                          ; preds = %.noexc3
  invoke void @_ZN4lean22finalize_kernel_moduleEv()
          to label %.noexc5 unwind label %2

.noexc5:                                          ; preds = %.noexc4
  invoke void @_ZN4lean20finalize_util_moduleEv()
          to label %.noexc6 unwind label %2

.noexc6:                                          ; preds = %.noexc5
  invoke void @_ZN4lean26run_post_thread_finalizersEv()
          to label %.noexc7 unwind label %2

.noexc7:                                          ; preds = %.noexc6
  invoke void @_ZN4lean31delete_thread_finalizer_managerEv()
          to label %_ZN4lean8finalizeEv.exit unwind label %2

_ZN4lean8finalizeEv.exit:                         ; preds = %.noexc7
  ret void

2:                                                ; preds = %.noexc7, %.noexc6, %.noexc5, %.noexc4, %.noexc3, %.noexc2, %.noexc1, %.noexc, %1
  %3 = landingpad { ptr, i32 }
          catch ptr null
  %4 = extractvalue { ptr, i32 } %3, 0
  tail call void @__clang_call_terminate(ptr %4) #16
  unreachable
}